target datalayout = "e-m:e-p270:32:32-p271:32:32-p272:64:64-i64:64-i128:128-f80:128-n8:16:32:64-S128"
target triple = "x86_64-unknown-linux-gnu"

%struct.E100PCIDeviceInfo = type { ptr, ptr, i16, i8, i16, i16, i32, i8, i8, i8 }
%struct.TypeInfo = type { ptr, ptr, i64, i64, ptr, ptr, ptr, i8, i64, ptr, ptr, ptr, ptr }
%struct.InterfaceInfo = type { ptr }

@.str = private unnamed_addr constant [11 x i8] c"pci-device\00", align 1
@.str.1 = private unnamed_addr constant [24 x i8] c"conventional-pci-device\00", align 1

; Function Attrs: nounwind sspstrong uwtable
define internal void @eepro100_register_types() #0 {
entry:
  %i = alloca i64, align 8
  %type_info = alloca %struct.TypeInfo, align 8
  %info = alloca ptr, align 8
  %.compoundliteral = alloca [2 x %struct.InterfaceInfo], align 8
  store i64 0, ptr %i, align 8
  br label %for.cond

for.cond:                                         ; preds = %for.inc, %entry
  %0 = load i64, ptr %i, align 8
  %cmp = icmp ult i64 %0, 13
  br i1 %cmp, label %for.body, label %for.end

for.body:                                         ; preds = %for.cond
  call void @llvm.memset.p0.i64(ptr align 8 %type_info, i8 0, i64 104, i1 false)
  %1 = load i64, ptr %i, align 8
  %arrayidx = getelementptr [13 x %struct.E100PCIDeviceInfo], ptr @e100_devices, i64 0, i64 %1
  store ptr %arrayidx, ptr %info, align 8
  %2 = load ptr, ptr %info, align 8
  %name = getelementptr inbounds %struct.E100PCIDeviceInfo, ptr %2, i32 0, i32 0
  %3 = load ptr, ptr %name, align 8
  %name1 = getelementptr inbounds %struct.TypeInfo, ptr %type_info, i32 0, i32 0
  store ptr %3, ptr %name1, align 8
  %parent = getelementptr inbounds %struct.TypeInfo, ptr %type_info, i32 0, i32 1
  store ptr @.str, ptr %parent, align 8
  %class_init = getelementptr inbounds %struct.TypeInfo, ptr %type_info, i32 0, i32 9
  store ptr @eepro100_class_init, ptr %class_init, align 8
  %instance_size = getelementptr inbounds %struct.TypeInfo, ptr %type_info, i32 0, i32 2
  store i64 16032, ptr %instance_size, align 8
  %instance_init = getelementptr inbounds %struct.TypeInfo, ptr %type_info, i32 0, i32 4
  store ptr @eepro100_instance_init, ptr %instance_init, align 8
  %arrayinit.begin = getelementptr inbounds [2 x %struct.InterfaceInfo], ptr %.compoundliteral, i64 0, i64 0
  %type = getelementptr inbounds %struct.InterfaceInfo, ptr %arrayinit.begin, i32 0, i32 0
  store ptr @.str.1, ptr %type, align 8
  %arrayinit.element = getelementptr inbounds %struct.InterfaceInfo, ptr %arrayinit.begin, i64 1
  %type2 = getelementptr inbounds %struct.InterfaceInfo, ptr %arrayinit.element, i32 0, i32 0
  store ptr null, ptr %type2, align 8
  %arraydecay = getelementptr inbounds [2 x %struct.InterfaceInfo], ptr %.compoundliteral, i64 0, i64 0
  %interfaces = getelementptr inbounds %struct.TypeInfo, ptr %type_info, i32 0, i32 12
  store ptr %arraydecay, ptr %interfaces, align 8
  %call = call ptr @type_register(ptr noundef %type_info)
  br label %for.inc

for.inc:                                          ; preds = %for.body
  %4 = load i64, ptr %i, align 8
  %inc = add i64 %4, 1
  store i64 %inc, ptr %i, align 8
  br label %for.cond, !llvm.loop !5

for.end:                                          ; preds = %for.cond
  ret void
}