; Function Attrs: nounwind sspstrong uwtable
define internal void @eepro100_register_types() #0 {
entry:
  %type_info = alloca %struct.TypeInfo, align 8
  %.compoundliteral = alloca [2 x %struct.InterfaceInfo], align 8
  %parent = getelementptr inbounds nuw i8, ptr %type_info, i64 8
  %class_init = getelementptr inbounds nuw i8, ptr %type_info, i64 72
  %instance_size = getelementptr inbounds nuw i8, ptr %type_info, i64 16
  %instance_init = getelementptr inbounds nuw i8, ptr %type_info, i64 32
  %arrayinit.element = getelementptr inbounds nuw i8, ptr %.compoundliteral, i64 8
  %interfaces = getelementptr inbounds nuw i8, ptr %type_info, i64 96
  %0 = getelementptr inbounds nuw i8, ptr %type_info, i64 24
  br label %for.body

for.body:                                         ; preds = %entry, %for.body
  %i.03 = phi i64 [ 0, %entry ], [ %inc, %for.body ]
  call void @llvm.memset.p0.i64(ptr noundef nonnull align 8 dereferenceable(104) %0, i8 0, i64 72, i1 false)
  %arrayidx = getelementptr [13 x %struct.E100PCIDeviceInfo], ptr @e100_devices, i64 0, i64 %i.03
  %1 = load ptr, ptr %arrayidx, align 16
  store ptr %1, ptr %type_info, align 8
  store ptr @.str, ptr %parent, align 8
  store ptr @eepro100_class_init, ptr %class_init, align 8
  store i64 16032, ptr %instance_size, align 8
  store ptr @eepro100_instance_init, ptr %instance_init, align 8
  store ptr @.str.1, ptr %.compoundliteral, align 8
  store ptr null, ptr %arrayinit.element, align 8
  store ptr %.compoundliteral, ptr %interfaces, align 8
  %call = call ptr @type_register(ptr noundef nonnull %type_info) #12
  %inc = add nuw nsw i64 %i.03, 1
  %exitcond.not = icmp eq i64 %inc, 13
  br i1 %exitcond.not, label %for.end, label %for.body, !llvm.loop !5

for.end:                                          ; preds = %for.body
  ret void
}